(dp0
(S'dict of stocks'
p1
c__builtin__
str
p2
S'stocks'
p3
tp4
(dp5
(S'tickers'
p6
g2
S'[A-Z].*'
p7
S'+'
p8
tp9
(dp10
(S'company name'
p11
g2
tp12
(S'name'
p13
g2
tp14
s(S'stock price'
p15
g2
S'price'
p16
tp17
(g16
c__builtin__
float
p18
tp19
sss(S'path to directory'
p20
g2
S'path'
p21
tp22
(g21
g2
S'/apps/homefs1/.*'
p23
tp24
s.