(dp0
(S'path to directory'
p1
c__builtin__
str
p2
S'path'
p3
tp4
(g3
g2
S'/apps/homefs1/.*'
p5
tp6
s(S'magic number'
p7
g2
S'magic_number'
p8
tp9
(S'number'
p10
c__builtin__
int
p11
I42
tp12
s(S'dict of stocks'
p13
g2
S'stocks'
p14
tp15
(dp16
(S'ticker'
p17
g2
S'[A-Z]*'
p18
S'+'
p19
tp20
(dp21
(S'stock price'
p22
g2
S'price'
p23
tp24
(g23
c__builtin__
float
p25
tp26
s(S'company name'
p27
g2
tp28
(S'name'
p29
g2
tp30
sss.